target datalayout = "e-m:e-p270:32:32-p271:32:32-p272:64:64-i64:64-i128:128-f80:128-n8:16:32:64-S128"
target triple = "x86_64-pc-linux-gnu"

%struct.ws_mempbrk_pattern = type { [256 x i8], i8, <2 x i64> }
%struct.reassembly_table = type { ptr, ptr, ptr, ptr, ptr }
%struct.reassembly_table_functions = type { ptr, ptr, ptr, ptr, ptr, ptr }

@pbrk_sub_delims = internal global %struct.ws_mempbrk_pattern zeroinitializer, align 16
@.str.161 = private unnamed_addr constant [13 x i8] c"http.upgrade\00", align 1
@.str.301 = private unnamed_addr constant [28 x i8] c"Hypertext Transfer Protocol\00", align 1
@.str.302 = private unnamed_addr constant [5 x i8] c"HTTP\00", align 1
@.str.303 = private unnamed_addr constant [5 x i8] c"http\00", align 1
@proto_http = internal global i32 0, align 4
@.str.304 = private unnamed_addr constant [34 x i8] c"Simple Service Discovery Protocol\00", align 1
@.str.305 = private unnamed_addr constant [5 x i8] c"SSDP\00", align 1
@.str.306 = private unnamed_addr constant [5 x i8] c"ssdp\00", align 1
@proto_ssdp = internal global i32 0, align 4
@http_handle = internal global ptr null, align 8
@.str.307 = private unnamed_addr constant [14 x i8] c"http-over-tcp\00", align 1
@http_tcp_handle = internal global ptr null, align 8
@.str.308 = private unnamed_addr constant [14 x i8] c"http-over-tls\00", align 1
@http_tls_handle = internal global ptr null, align 8
@.str.309 = private unnamed_addr constant [15 x i8] c"http-over-sctp\00", align 1
@http_sctp_handle = internal global ptr null, align 8
@http_streaming_reassembly_table = internal global %struct.reassembly_table zeroinitializer, align 8
@addresses_ports_reassembly_table_functions = external constant %struct.reassembly_table_functions, align 8
@.str.310 = private unnamed_addr constant [18 x i8] c"desegment_headers\00", align 1
@.str.311 = private unnamed_addr constant [55 x i8] c"Reassemble HTTP headers spanning multiple TCP segments\00", align 1
@.str.312 = private unnamed_addr constant [217 x i8] c"Whether the HTTP dissector should reassemble headers of a request spanning multiple TCP segments. To use this option, you must also enable \22Allow subdissectors to reassemble TCP streams\22 in the TCP protocol settings.\00", align 1
@http_desegment_headers = internal global i8 1, align 1
@.str.313 = private unnamed_addr constant [15 x i8] c"desegment_body\00", align 1
@.str.314 = private unnamed_addr constant [54 x i8] c"Reassemble HTTP bodies spanning multiple TCP segments\00", align 1
@http_desegment_body = internal global i8 1, align 1
@.str.316 = private unnamed_addr constant [13 x i8] c"dechunk_body\00", align 1
@.str.317 = private unnamed_addr constant [41 x i8] c"Reassemble chunked transfer-coded bodies\00", align 1
@.str.318 = private unnamed_addr constant [108 x i8] c"Whether to reassemble bodies of entities that are transferred using the \22Transfer-Encoding: chunked\22 method\00", align 1
@http_dechunk_body = internal global i8 1, align 1
@.str.319 = private unnamed_addr constant [16 x i8] c"decompress_body\00", align 1
@.str.320 = private unnamed_addr constant [25 x i8] c"Uncompress entity bodies\00", align 1
@.str.321 = private unnamed_addr constant [83 x i8] c"Whether to uncompress entity bodies that are compressed using \22Content-Encoding: \22\00", align 1
@http_decompress_body = internal global i8 1, align 1
@.str.322 = private unnamed_addr constant [20 x i8] c"check_ascii_headers\00", align 1
@.str.323 = private unnamed_addr constant [41 x i8] c"Reject non-ASCII headers as invalid HTTP\00", align 1
@.str.324 = private unnamed_addr constant [96 x i8] c"Whether to treat non-ASCII in headers as non-HTTP data and allow other dissectors to process it\00", align 1
@http_check_ascii_headers = internal global i8 0, align 1
@.str.325 = private unnamed_addr constant [19 x i8] c"tcp_alternate_port\00", align 1
@global_http_tls_range = internal global ptr null, align 8
@.str.326 = private unnamed_addr constant [4 x i8] c"443\00", align 1
@.str.327 = private unnamed_addr constant [9 x i8] c"tls.port\00", align 1
@.str.328 = private unnamed_addr constant [14 x i8] c"SSL/TLS Ports\00", align 1
@.str.329 = private unnamed_addr constant [20 x i8] c"SSL/TLS Ports range\00", align 1
@.str.330 = private unnamed_addr constant [9 x i8] c"ssl.port\00", align 1
@.str.331 = private unnamed_addr constant [26 x i8] c"Custom HTTP Header Fields\00", align 1
@.str.332 = private unnamed_addr constant [26 x i8] c"custom_http_header_fields\00", align 1
@header_fields = internal global ptr null, align 8
@num_header_fields = internal global i32 0, align 4
@.str.333 = private unnamed_addr constant [26 x i8] c"Custom HTTP header fields\00", align 1
@.str.334 = private unnamed_addr constant [111 x i8] c"A table to define custom HTTP header for which fields can be setup and used for filtering/data extraction etc.\00", align 1
@.str.335 = private unnamed_addr constant [10 x i8] c"http.port\00", align 1
@.str.336 = private unnamed_addr constant [34 x i8] c"TCP port for protocols using HTTP\00", align 1
@port_subdissector_table = internal global ptr null, align 8
@.str.337 = private unnamed_addr constant [13 x i8] c"HTTP Upgrade\00", align 1
@upgrade_subdissector_table = internal global ptr null, align 8
@.str.338 = private unnamed_addr constant [22 x i8] c"HTTP payload fallback\00", align 1
@heur_subdissector_list = internal global ptr null, align 8
@http_tap = internal global i32 0, align 4
@.str.339 = private unnamed_addr constant [12 x i8] c"http_follow\00", align 1
@http_follow_tap = internal global i32 0, align 4
@.str.340 = private unnamed_addr constant [12 x i8] c"credentials\00", align 1
@credentials_tap = internal global i32 0, align 4
@http_eo_tap = internal global i32 0, align 4
@pbrk_gen_delims = internal global %struct.ws_mempbrk_pattern zeroinitializer, align 16
@.str.341 = private unnamed_addr constant [7 x i8] c":?#[]@\00", align 1
@.str.342 = private unnamed_addr constant [11 x i8] c"!$&'()*+,;\00", align 1

; Function Attrs: null_pointer_is_valid sspstrong uwtable
define hidden void @proto_register_http() #0 {
  %1 = alloca ptr, align 8
  %2 = alloca ptr, align 8
  %3 = alloca ptr, align 8
  call void @llvm.lifetime.start.p0(i64 8, ptr %1) #19
  call void @llvm.lifetime.start.p0(i64 8, ptr %2) #19
  call void @llvm.lifetime.start.p0(i64 8, ptr %3) #19
  %4 = call i32 @proto_register_protocol(ptr noundef @.str.301, ptr noundef @.str.302, ptr noundef @.str.303)
  store i32 %4, ptr @proto_http, align 4
  %5 = call i32 @proto_register_protocol(ptr noundef @.str.304, ptr noundef @.str.305, ptr noundef @.str.306)
  store i32 %5, ptr @proto_ssdp, align 4
  %6 = load i32, ptr @proto_http, align 4
  call void @proto_register_field_array(i32 noundef %6, ptr noundef @proto_register_http.hf, i32 noundef 81)
  call void @proto_register_subtree_array(ptr noundef @proto_register_http.ett, i32 noundef 14)
  %7 = load i32, ptr @proto_http, align 4
  %8 = call ptr @expert_register_protocol(i32 noundef %7)
  store ptr %8, ptr %2, align 8
  %9 = load ptr, ptr %2, align 8
  call void @expert_register_field_array(ptr noundef %9, ptr noundef @proto_register_http.ei, i32 noundef 9)
  %10 = load i32, ptr @proto_http, align 4
  %11 = call ptr @register_dissector(ptr noundef @.str.303, ptr noundef @dissect_http, i32 noundef %10)
  store ptr %11, ptr @http_handle, align 8
  %12 = load i32, ptr @proto_http, align 4
  %13 = call ptr @register_dissector(ptr noundef @.str.307, ptr noundef @dissect_http_tcp, i32 noundef %12)
  store ptr %13, ptr @http_tcp_handle, align 8
  %14 = load i32, ptr @proto_http, align 4
  %15 = call ptr @register_dissector(ptr noundef @.str.308, ptr noundef @dissect_http_tls, i32 noundef %14)
  store ptr %15, ptr @http_tls_handle, align 8
  %16 = load i32, ptr @proto_http, align 4
  %17 = call ptr @register_dissector(ptr noundef @.str.309, ptr noundef @dissect_http_sctp, i32 noundef %16)
  store ptr %17, ptr @http_sctp_handle, align 8
  call void @reassembly_table_register(ptr noundef @http_streaming_reassembly_table, ptr noundef @addresses_ports_reassembly_table_functions)
  %18 = load i32, ptr @proto_http, align 4
  %19 = call ptr @prefs_register_protocol(i32 noundef %18, ptr noundef @reinit_http)
  store ptr %19, ptr %1, align 8
  %20 = load ptr, ptr %1, align 8
  call void @prefs_register_bool_preference(ptr noundef %20, ptr noundef @.str.310, ptr noundef @.str.311, ptr noundef @.str.312, ptr noundef @http_desegment_headers)
  %21 = load ptr, ptr %1, align 8
  call void @prefs_register_bool_preference(ptr noundef %21, ptr noundef @.str.313, ptr noundef @.str.314, ptr noundef @.str.315, ptr noundef @http_desegment_body)
  %22 = load ptr, ptr %1, align 8
  call void @prefs_register_bool_preference(ptr noundef %22, ptr noundef @.str.316, ptr noundef @.str.317, ptr noundef @.str.318, ptr noundef @http_dechunk_body)
  %23 = load ptr, ptr %1, align 8
  call void @prefs_register_bool_preference(ptr noundef %23, ptr noundef @.str.319, ptr noundef @.str.320, ptr noundef @.str.321, ptr noundef @http_decompress_body)
  %24 = load ptr, ptr %1, align 8
  call void @prefs_register_bool_preference(ptr noundef %24, ptr noundef @.str.322, ptr noundef @.str.323, ptr noundef @.str.324, ptr noundef @http_check_ascii_headers)
  %25 = load ptr, ptr %1, align 8
  call void @prefs_register_obsolete_preference(ptr noundef %25, ptr noundef @.str.325)
  %26 = call ptr @wmem_epan_scope()
  %27 = call i32 @range_convert_str(ptr noundef %26, ptr noundef @global_http_tls_range, ptr noundef @.str.326, i32 noundef 65535)
  %28 = load ptr, ptr %1, align 8
  call void @prefs_register_range_preference(ptr noundef %28, ptr noundef @.str.327, ptr noundef @.str.328, ptr noundef @.str.329, ptr noundef @global_http_tls_range, i32 noundef 65535)
  %29 = load ptr, ptr %1, align 8
  call void @prefs_register_obsolete_preference(ptr noundef %29, ptr noundef @.str.330)
  %30 = call ptr @uat_new(ptr noundef @.str.331, i64 noundef 16, ptr noundef @.str.332, i1 noundef zeroext true, ptr noundef @header_fields, ptr noundef @num_header_fields, i32 noundef 3, ptr noundef null, ptr noundef @header_fields_copy_cb, ptr noundef @header_fields_update_cb, ptr noundef @header_fields_free_cb, ptr noundef @header_fields_post_update_cb, ptr noundef @header_fields_reset_cb, ptr noundef @proto_register_http.custom_header_uat_fields)
  store ptr %30, ptr %3, align 8
  %31 = load ptr, ptr %1, align 8
  %32 = load ptr, ptr %3, align 8
  call void @prefs_register_uat_preference(ptr noundef %31, ptr noundef @.str.332, ptr noundef @.str.333, ptr noundef @.str.334, ptr noundef %32)
  %33 = load i32, ptr @proto_http, align 4
  %34 = call ptr @register_dissector_table(ptr noundef @.str.335, ptr noundef @.str.336, i32 noundef %33, i32 noundef 5, i32 noundef 1)
  store ptr %34, ptr @port_subdissector_table, align 8
  %35 = load i32, ptr @proto_http, align 4
  %36 = call ptr @register_dissector_table(ptr noundef @.str.161, ptr noundef @.str.337, i32 noundef %35, i32 noundef 26, i32 noundef 0)
  store ptr %36, ptr @upgrade_subdissector_table, align 8
  %37 = load i32, ptr @proto_http, align 4
  %38 = call ptr @register_heur_dissector_list_with_description(ptr noundef @.str.303, ptr noundef @.str.338, i32 noundef %37)
  store ptr %38, ptr @heur_subdissector_list, align 8
  %39 = call i32 @register_tap(ptr noundef @.str.303)
  store i32 %39, ptr @http_tap, align 4
  %40 = call i32 @register_tap(ptr noundef @.str.339)
  store i32 %40, ptr @http_follow_tap, align 4
  %41 = call i32 @register_tap(ptr noundef @.str.340)
  store i32 %41, ptr @credentials_tap, align 4
  %42 = load i32, ptr @proto_http, align 4
  call void @register_follow_stream(i32 noundef %42, ptr noundef @.str.339, ptr noundef @tcp_follow_conv_filter, ptr noundef @tcp_follow_index_filter, ptr noundef @tcp_follow_address_filter, ptr noundef @tcp_port_to_display, ptr noundef @follow_tvb_tap_listener, ptr noundef @get_tcp_stream_count, ptr noundef null)
  %43 = load i32, ptr @proto_http, align 4
  %44 = call i32 @register_export_object(i32 noundef %43, ptr noundef @http_eo_packet, ptr noundef null)
  store i32 %44, ptr @http_eo_tap, align 4
  call void @ws_mempbrk_compile(ptr noundef @pbrk_gen_delims, ptr noundef @.str.341)
  call void @ws_mempbrk_compile(ptr noundef @pbrk_sub_delims, ptr noundef @.str.342)
  call void @llvm.lifetime.end.p0(i64 8, ptr %3) #19
  call void @llvm.lifetime.end.p0(i64 8, ptr %2) #19
  call void @llvm.lifetime.end.p0(i64 8, ptr %1) #19
  ret void
}