; Function Attrs: null_pointer_is_valid sspstrong uwtable
define hidden void @proto_register_http() local_unnamed_addr #0 {
  %1 = tail call i32 @proto_register_protocol(ptr noundef nonnull @.str.301, ptr noundef nonnull @.str.302, ptr noundef nonnull @.str.303)
  store i32 %1, ptr @proto_http, align 4
  %2 = tail call i32 @proto_register_protocol(ptr noundef nonnull @.str.304, ptr noundef nonnull @.str.305, ptr noundef nonnull @.str.306)
  store i32 %2, ptr @proto_ssdp, align 4
  %3 = load i32, ptr @proto_http, align 4
  tail call void @proto_register_field_array(i32 noundef %3, ptr noundef nonnull @proto_register_http.hf, i32 noundef 81)
  tail call void @proto_register_subtree_array(ptr noundef nonnull @proto_register_http.ett, i32 noundef 14)
  %4 = load i32, ptr @proto_http, align 4
  %5 = tail call ptr @expert_register_protocol(i32 noundef %4)
  tail call void @expert_register_field_array(ptr noundef %5, ptr noundef nonnull @proto_register_http.ei, i32 noundef 9)
  %6 = load i32, ptr @proto_http, align 4
  %7 = tail call ptr @register_dissector(ptr noundef nonnull @.str.303, ptr noundef nonnull @dissect_http, i32 noundef %6)
  store ptr %7, ptr @http_handle, align 8
  %8 = load i32, ptr @proto_http, align 4
  %9 = tail call ptr @register_dissector(ptr noundef nonnull @.str.307, ptr noundef nonnull @dissect_http_tcp, i32 noundef %8)
  store ptr %9, ptr @http_tcp_handle, align 8
  %10 = load i32, ptr @proto_http, align 4
  %11 = tail call ptr @register_dissector(ptr noundef nonnull @.str.308, ptr noundef nonnull @dissect_http_tls, i32 noundef %10)
  store ptr %11, ptr @http_tls_handle, align 8
  %12 = load i32, ptr @proto_http, align 4
  %13 = tail call ptr @register_dissector(ptr noundef nonnull @.str.309, ptr noundef nonnull @dissect_http_sctp, i32 noundef %12)
  store ptr %13, ptr @http_sctp_handle, align 8
  tail call void @reassembly_table_register(ptr noundef nonnull @http_streaming_reassembly_table, ptr noundef nonnull @addresses_ports_reassembly_table_functions)
  %14 = load i32, ptr @proto_http, align 4
  %15 = tail call ptr @prefs_register_protocol(i32 noundef %14, ptr noundef nonnull @reinit_http)
  tail call void @prefs_register_bool_preference(ptr noundef %15, ptr noundef nonnull @.str.310, ptr noundef nonnull @.str.311, ptr noundef nonnull @.str.312, ptr noundef nonnull @http_desegment_headers)
  tail call void @prefs_register_bool_preference(ptr noundef %15, ptr noundef nonnull @.str.313, ptr noundef nonnull @.str.314, ptr noundef nonnull @.str.315, ptr noundef nonnull @http_desegment_body)
  tail call void @prefs_register_bool_preference(ptr noundef %15, ptr noundef nonnull @.str.316, ptr noundef nonnull @.str.317, ptr noundef nonnull @.str.318, ptr noundef nonnull @http_dechunk_body)
  tail call void @prefs_register_bool_preference(ptr noundef %15, ptr noundef nonnull @.str.319, ptr noundef nonnull @.str.320, ptr noundef nonnull @.str.321, ptr noundef nonnull @http_decompress_body)
  tail call void @prefs_register_bool_preference(ptr noundef %15, ptr noundef nonnull @.str.322, ptr noundef nonnull @.str.323, ptr noundef nonnull @.str.324, ptr noundef nonnull @http_check_ascii_headers)
  tail call void @prefs_register_obsolete_preference(ptr noundef %15, ptr noundef nonnull @.str.325)
  %16 = tail call ptr @wmem_epan_scope()
  %17 = tail call i32 @range_convert_str(ptr noundef %16, ptr noundef nonnull @global_http_tls_range, ptr noundef nonnull @.str.326, i32 noundef 65535)
  tail call void @prefs_register_range_preference(ptr noundef %15, ptr noundef nonnull @.str.327, ptr noundef nonnull @.str.328, ptr noundef nonnull @.str.329, ptr noundef nonnull @global_http_tls_range, i32 noundef 65535)
  tail call void @prefs_register_obsolete_preference(ptr noundef %15, ptr noundef nonnull @.str.330)
  %18 = tail call ptr @uat_new(ptr noundef nonnull @.str.331, i64 noundef 16, ptr noundef nonnull @.str.332, i1 noundef zeroext true, ptr noundef nonnull @header_fields, ptr noundef nonnull @num_header_fields, i32 noundef 3, ptr noundef null, ptr noundef nonnull @header_fields_copy_cb, ptr noundef nonnull @header_fields_update_cb, ptr noundef nonnull @header_fields_free_cb, ptr noundef nonnull @header_fields_post_update_cb, ptr noundef nonnull @header_fields_reset_cb, ptr noundef nonnull @proto_register_http.custom_header_uat_fields)
  tail call void @prefs_register_uat_preference(ptr noundef %15, ptr noundef nonnull @.str.332, ptr noundef nonnull @.str.333, ptr noundef nonnull @.str.334, ptr noundef %18)
  %19 = load i32, ptr @proto_http, align 4
  %20 = tail call ptr @register_dissector_table(ptr noundef nonnull @.str.335, ptr noundef nonnull @.str.336, i32 noundef %19, i32 noundef 5, i32 noundef 1)
  store ptr %20, ptr @port_subdissector_table, align 8
  %21 = load i32, ptr @proto_http, align 4
  %22 = tail call ptr @register_dissector_table(ptr noundef nonnull @.str.161, ptr noundef nonnull @.str.337, i32 noundef %21, i32 noundef 26, i32 noundef 0)
  store ptr %22, ptr @upgrade_subdissector_table, align 8
  %23 = load i32, ptr @proto_http, align 4
  %24 = tail call ptr @register_heur_dissector_list_with_description(ptr noundef nonnull @.str.303, ptr noundef nonnull @.str.338, i32 noundef %23)
  store ptr %24, ptr @heur_subdissector_list, align 8
  %25 = tail call i32 @register_tap(ptr noundef nonnull @.str.303)
  store i32 %25, ptr @http_tap, align 4
  %26 = tail call i32 @register_tap(ptr noundef nonnull @.str.339)
  store i32 %26, ptr @http_follow_tap, align 4
  %27 = tail call i32 @register_tap(ptr noundef nonnull @.str.340)
  store i32 %27, ptr @credentials_tap, align 4
  %28 = load i32, ptr @proto_http, align 4
  tail call void @register_follow_stream(i32 noundef %28, ptr noundef nonnull @.str.339, ptr noundef nonnull @tcp_follow_conv_filter, ptr noundef nonnull @tcp_follow_index_filter, ptr noundef nonnull @tcp_follow_address_filter, ptr noundef nonnull @tcp_port_to_display, ptr noundef nonnull @follow_tvb_tap_listener, ptr noundef nonnull @get_tcp_stream_count, ptr noundef null)
  %29 = load i32, ptr @proto_http, align 4
  %30 = tail call i32 @register_export_object(i32 noundef %29, ptr noundef nonnull @http_eo_packet, ptr noundef null)
  store i32 %30, ptr @http_eo_tap, align 4
  tail call void @ws_mempbrk_compile(ptr noundef nonnull @pbrk_gen_delims, ptr noundef nonnull @.str.341)
  tail call void @ws_mempbrk_compile(ptr noundef nonnull @pbrk_sub_delims, ptr noundef nonnull @.str.342)
  ret void
}